; ModuleID = 'source-C-CXX/36/573.c'
source_filename = "source-C-CXX/36/573.c"
target datalayout = "e-m:e-p270:32:32-p271:32:32-p272:64:64-i64:64-f80:128-n8:16:32:64-S128"
target triple = "x86_64-pc-linux-gnu"

@.str = private unnamed_addr constant [3 x i8] c"%d\00", align 1
@.str.1 = private unnamed_addr constant [4 x i8] c"%c\0A\00", align 1
@str = private unnamed_addr constant [3 x i8] c"no\00", align 1

; Function Attrs: nounwind sspstrong uwtable
define dso_local void @main() local_unnamed_addr #0 {
  %1 = alloca i32, align 4
  %2 = alloca [100000 x i8], align 16
  %3 = bitcast i32* %1 to i8*
  call void @llvm.lifetime.start.p0i8(i64 4, i8* nonnull %3) #7
  %4 = getelementptr inbounds [100000 x i8], [100000 x i8]* %2, i64 0, i64 0
  call void @llvm.lifetime.start.p0i8(i64 100000, i8* nonnull %4) #7
  %5 = call i32 (i8*, ...) @__isoc99_scanf(i8* getelementptr inbounds ([3 x i8], [3 x i8]* @.str, i64 0, i64 0), i32* nonnull %1)
  %6 = call i32 (i8*, ...) bitcast (i32 (...)* @gets to i32 (i8*, ...)*)(i8* nonnull %4) #7
  %7 = load i32, i32* %1, align 4, !tbaa !5
  %8 = icmp sgt i32 %7, 0
  br i1 %8, label %9, label %85

9:                                                ; preds = %0, %81
  %10 = phi i32 [ %82, %81 ], [ 0, %0 ]
  %11 = call i32 (i8*, ...) bitcast (i32 (...)* @gets to i32 (i8*, ...)*)(i8* nonnull %4) #7
  %12 = call i64 @strlen(i8* noundef nonnull %4) #8
  %13 = trunc i64 %12 to i32
  %14 = icmp sgt i32 %13, 0
  br i1 %14, label %15, label %81

15:                                               ; preds = %9
  %16 = add i64 %12, 4294967295
  %17 = and i64 %16, 4294967295
  %18 = and i64 %12, 4294967295
  %19 = icmp ult i64 %18, 8
  %20 = and i64 %12, 7
  %21 = sub nsw i64 %18, %20
  %22 = icmp eq i64 %20, 0
  br label %23

23:                                               ; preds = %58, %15
  %24 = phi i64 [ 0, %15 ], [ %59, %58 ]
  %25 = getelementptr inbounds [100000 x i8], [100000 x i8]* %2, i64 0, i64 %24
  %26 = load i8, i8* %25, align 1, !tbaa !9
  br i1 %19, label %53, label %27

27:                                               ; preds = %23
  %28 = insertelement <4 x i8> poison, i8 %26, i32 0
  %29 = shufflevector <4 x i8> %28, <4 x i8> poison, <4 x i32> zeroinitializer
  %30 = insertelement <4 x i8> poison, i8 %26, i32 0
  %31 = shufflevector <4 x i8> %30, <4 x i8> poison, <4 x i32> zeroinitializer
  br label %32

32:                                               ; preds = %32, %27
  %33 = phi i64 [ 0, %27 ], [ %48, %32 ]
  %34 = phi <4 x i32> [ zeroinitializer, %27 ], [ %46, %32 ]
  %35 = phi <4 x i32> [ zeroinitializer, %27 ], [ %47, %32 ]
  %36 = getelementptr inbounds [100000 x i8], [100000 x i8]* %2, i64 0, i64 %33
  %37 = bitcast i8* %36 to <4 x i8>*
  %38 = load <4 x i8>, <4 x i8>* %37, align 8, !tbaa !9
  %39 = getelementptr inbounds i8, i8* %36, i64 4
  %40 = bitcast i8* %39 to <4 x i8>*
  %41 = load <4 x i8>, <4 x i8>* %40, align 4, !tbaa !9
  %42 = icmp eq <4 x i8> %38, %29
  %43 = icmp eq <4 x i8> %41, %31
  %44 = zext <4 x i1> %42 to <4 x i32>
  %45 = zext <4 x i1> %43 to <4 x i32>
  %46 = add <4 x i32> %34, %44
  %47 = add <4 x i32> %35, %45
  %48 = add nuw i64 %33, 8
  %49 = icmp eq i64 %48, %21
  br i1 %49, label %50, label %32, !llvm.loop !10

50:                                               ; preds = %32
  %51 = add <4 x i32> %47, %46
  %52 = call i32 @llvm.vector.reduce.add.v4i32(<4 x i32> %51)
  br i1 %22, label %70, label %53

53:                                               ; preds = %23, %50
  %54 = phi i64 [ 0, %23 ], [ %21, %50 ]
  %55 = phi i32 [ 0, %23 ], [ %52, %50 ]
  br label %60

56:                                               ; preds = %70
  %57 = icmp eq i64 %24, %17
  br i1 %57, label %79, label %58

58:                                               ; preds = %56
  %59 = add nuw nsw i64 %24, 1
  br label %23, !llvm.loop !13

60:                                               ; preds = %53, %60
  %61 = phi i64 [ %68, %60 ], [ %54, %53 ]
  %62 = phi i32 [ %67, %60 ], [ %55, %53 ]
  %63 = getelementptr inbounds [100000 x i8], [100000 x i8]* %2, i64 0, i64 %61
  %64 = load i8, i8* %63, align 1, !tbaa !9
  %65 = icmp eq i8 %64, %26
  %66 = zext i1 %65 to i32
  %67 = add nuw nsw i32 %62, %66
  %68 = add nuw nsw i64 %61, 1
  %69 = icmp eq i64 %68, %18
  br i1 %69, label %70, label %60, !llvm.loop !14

70:                                               ; preds = %60, %50
  %71 = phi i32 [ %52, %50 ], [ %67, %60 ]
  %72 = icmp eq i32 %71, 1
  br i1 %72, label %73, label %56

73:                                               ; preds = %70
  %74 = and i64 %24, 4294967295
  %75 = getelementptr inbounds [100000 x i8], [100000 x i8]* %2, i64 0, i64 %74
  %76 = load i8, i8* %75, align 1, !tbaa !9
  %77 = sext i8 %76 to i32
  %78 = call i32 (i8*, ...) @printf(i8* nonnull dereferenceable(1) getelementptr inbounds ([4 x i8], [4 x i8]* @.str.1, i64 0, i64 0), i32 %77)
  br label %81

79:                                               ; preds = %56
  %80 = call i32 @puts(i8* nonnull dereferenceable(1) getelementptr inbounds ([3 x i8], [3 x i8]* @str, i64 0, i64 0))
  br label %81

81:                                               ; preds = %9, %73, %79
  %82 = add nuw nsw i32 %10, 1
  %83 = load i32, i32* %1, align 4, !tbaa !5
  %84 = icmp slt i32 %82, %83
  br i1 %84, label %9, label %85, !llvm.loop !16

85:                                               ; preds = %81, %0
  call void @llvm.lifetime.end.p0i8(i64 100000, i8* nonnull %4) #7
  call void @llvm.lifetime.end.p0i8(i64 4, i8* nonnull %3) #7
  ret void
}

; Function Attrs: argmemonly mustprogress nofree nosync nounwind willreturn
declare void @llvm.lifetime.start.p0i8(i64 immarg, i8* nocapture) #1

; Function Attrs: nofree nounwind
declare noundef i32 @__isoc99_scanf(i8* nocapture noundef readonly, ...) local_unnamed_addr #2

declare i32 @gets(...) local_unnamed_addr #3

; Function Attrs: argmemonly mustprogress nofree nounwind readonly willreturn
declare i64 @strlen(i8* nocapture) local_unnamed_addr #4

; Function Attrs: nofree nounwind
declare noundef i32 @printf(i8* nocapture noundef readonly, ...) local_unnamed_addr #2

; Function Attrs: argmemonly mustprogress nofree nosync nounwind willreturn
declare void @llvm.lifetime.end.p0i8(i64 immarg, i8* nocapture) #1

; Function Attrs: nofree nounwind
declare noundef i32 @puts(i8* nocapture noundef readonly) local_unnamed_addr #5

; Function Attrs: nofree nosync nounwind readnone willreturn
declare i32 @llvm.vector.reduce.add.v4i32(<4 x i32>) #6


!llvm.module.flags = !{!0, !1, !2, !3}
!llvm.ident = !{!4}

!0 = !{i32 1, !"wchar_size", i32 4}
!1 = !{i32 7, !"PIC Level", i32 2}
!2 = !{i32 7, !"PIE Level", i32 2}
!3 = !{i32 7, !"uwtable", i32 1}
!4 = !{!"clang version 13.0.0"}
!5 = !{!6, !6, i64 0}
!6 = !{!"int", !7, i64 0}
!7 = !{!"omnipotent char", !8, i64 0}
!8 = !{!"Simple C/C++ TBAA"}
!9 = !{!7, !7, i64 0}
!10 = distinct !{!10, !11, !12}
!11 = !{!"llvm.loop.mustprogress"}
!12 = !{!"llvm.loop.isvectorized", i32 1}
!13 = distinct !{!13, !11}
!14 = distinct !{!14, !11, !15, !12}
!15 = !{!"llvm.loop.unroll.runtime.disable"}
!16 = distinct !{!16, !11}
